target datalayout = "e-m:e-p270:32:32-p271:32:32-p272:64:64-i64:64-i128:128-f80:128-n8:16:32:64-S128"
target triple = "x86_64-pc-linux-gnu"

%struct.H5O_msg_class_t = type { i32, ptr, i64, i32, ptr, ptr, ptr, ptr, ptr, ptr, ptr, ptr, ptr, ptr, ptr, ptr, ptr, ptr, ptr, ptr }

@H5O_init_g = external global i8, align 1
@H5_libterm_g = external global i8, align 1
@.str = private unnamed_addr constant [104 x i8] c"generated/home/dtcxzyw/WorkSpace/Projects/compilers/llvm-opt-benchmark/bench/hdf5/hdf5/src/H5Omessage.c\00", align 1
@H5E_OHDR_g = external global i64, align 8
@__func__.H5O__msg_reset_real = private unnamed_addr constant [20 x i8] c"H5O__msg_reset_real\00", align 1
@H5E_CANTRELEASE_g = external global i64, align 8
@.str.47 = private unnamed_addr constant [20 x i8] c"reset method failed\00", align 1

; Function Attrs: nounwind uwtable
define internal i32 @H5O__msg_reset_real(ptr noundef %0, ptr noundef %1) #0 {
  %3 = alloca ptr, align 8
  %4 = alloca ptr, align 8
  %5 = alloca i32, align 4
  %6 = alloca i8, align 1
  store ptr %0, ptr %3, align 8, !tbaa !23
  store ptr %1, ptr %4, align 8, !tbaa !10
  call void @llvm.lifetime.start.p0(i64 4, ptr %5) #5
  store i32 0, ptr %5, align 4, !tbaa !8
  call void @llvm.lifetime.start.p0(i64 1, ptr %6) #5
  store i8 0, ptr %6, align 1, !tbaa !13
  %7 = load i8, ptr @H5O_init_g, align 1, !tbaa !13, !range !15, !noundef !16
  %8 = trunc i8 %7 to i1
  br i1 %8, label %13, label %9

9:                                                ; preds = %2
  %10 = load i8, ptr @H5_libterm_g, align 1, !tbaa !13, !range !15, !noundef !16
  %11 = trunc i8 %10 to i1
  %12 = xor i1 %11, true
  br label %13

13:                                               ; preds = %9, %2
  %14 = phi i1 [ true, %2 ], [ %12, %9 ]
  %15 = xor i1 %14, true
  %16 = xor i1 %15, true
  %17 = zext i1 %16 to i32
  %18 = sext i32 %17 to i64
  %19 = call i64 @llvm.expect.i64(i64 %18, i64 1)
  %20 = icmp ne i64 %19, 0
  br i1 %20, label %21, label %64

21:                                               ; preds = %13
  %22 = load ptr, ptr %4, align 8, !tbaa !10
  %23 = icmp ne ptr %22, null
  br i1 %23, label %24, label %62

24:                                               ; preds = %21
  %25 = load ptr, ptr %3, align 8, !tbaa !23
  %26 = getelementptr inbounds nuw %struct.H5O_msg_class_t, ptr %25, i32 0, i32 8
  %27 = load ptr, ptr %26, align 8, !tbaa !74
  %28 = icmp ne ptr %27, null
  br i1 %28, label %29, label %56

29:                                               ; preds = %24
  %30 = load ptr, ptr %3, align 8, !tbaa !23
  %31 = getelementptr inbounds nuw %struct.H5O_msg_class_t, ptr %30, i32 0, i32 8
  %32 = load ptr, ptr %31, align 8, !tbaa !74
  %33 = load ptr, ptr %4, align 8, !tbaa !10
  %34 = call i32 %32(ptr noundef %33)
  %35 = icmp slt i32 %34, 0
  br i1 %35, label %36, label %55

36:                                               ; preds = %29
  br label %37

37:                                               ; preds = %36
  br label %38

38:                                               ; preds = %37
  br label %39

39:                                               ; preds = %38
  %40 = load i64, ptr @H5E_OHDR_g, align 8, !tbaa !17
  %41 = load i64, ptr @H5E_CANTRELEASE_g, align 8, !tbaa !17
  %42 = call i32 (ptr, ptr, i32, i64, i64, ptr, ...) @H5E_printf_stack(ptr noundef @.str, ptr noundef @__func__.H5O__msg_reset_real, i32 noundef 556, i64 noundef %40, i64 noundef %41, ptr noundef @.str.47)
  br label %43

43:                                               ; preds = %39
  br label %44

44:                                               ; preds = %43
  store i8 1, ptr %6, align 1, !tbaa !13
  %45 = load i8, ptr %6, align 1, !tbaa !13, !range !15, !noundef !16
  %46 = trunc i8 %45 to i1
  %47 = zext i1 %46 to i8
  store i8 %47, ptr %6, align 1, !tbaa !13
  br label %48

48:                                               ; preds = %44
  br label %49

49:                                               ; preds = %48
  br label %50

50:                                               ; preds = %49
  store i32 -1, ptr %5, align 4, !tbaa !8
  br label %63

51:                                               ; No predecessors!
  br label %52

52:                                               ; preds = %51
  br label %53

53:                                               ; preds = %52
  br label %54

54:                                               ; preds = %53
  br label %55

55:                                               ; preds = %54, %29
  br label %61

56:                                               ; preds = %24
  %57 = load ptr, ptr %4, align 8, !tbaa !10
  %58 = load ptr, ptr %3, align 8, !tbaa !23
  %59 = getelementptr inbounds nuw %struct.H5O_msg_class_t, ptr %58, i32 0, i32 2
  %60 = load i64, ptr %59, align 8, !tbaa !75
  call void @llvm.memset.p0.i64(ptr align 1 %57, i8 0, i64 %60, i1 false)
  br label %61

61:                                               ; preds = %56, %55
  br label %62

62:                                               ; preds = %61, %21
  br label %63

63:                                               ; preds = %62, %50
  br label %64

64:                                               ; preds = %63, %13
  %65 = load i32, ptr %5, align 4, !tbaa !8
  call void @llvm.lifetime.end.p0(i64 1, ptr %6) #5
  call void @llvm.lifetime.end.p0(i64 4, ptr %5) #5
  ret i32 %65
}

; Function Attrs: nounwind uwtable
define ptr @H5O_msg_free_real(ptr noundef %0, ptr noundef %1) #0 {
  %3 = alloca ptr, align 8
  %4 = alloca ptr, align 8
  store ptr %0, ptr %3, align 8, !tbaa !23
  store ptr %1, ptr %4, align 8, !tbaa !10
  %5 = load i8, ptr @H5O_init_g, align 1, !tbaa !13, !range !15, !noundef !16
  %6 = trunc i8 %5 to i1
  br i1 %6, label %11, label %7

7:                                                ; preds = %2
  %8 = load i8, ptr @H5_libterm_g, align 1, !tbaa !13, !range !15, !noundef !16
  %9 = trunc i8 %8 to i1
  %10 = xor i1 %9, true
  br label %11

11:                                               ; preds = %7, %2
  %12 = phi i1 [ true, %2 ], [ %10, %7 ]
  %13 = xor i1 %12, true
  %14 = xor i1 %13, true
  %15 = zext i1 %14 to i32
  %16 = sext i32 %15 to i64
  %17 = call i64 @llvm.expect.i64(i64 %16, i64 1)
  %18 = icmp ne i64 %17, 0
  br i1 %18, label %19, label %44

19:                                               ; preds = %11
  %20 = load ptr, ptr %4, align 8, !tbaa !10
  %21 = icmp ne ptr %20, null
  br i1 %21, label %22, label %43

22:                                               ; preds = %19
  %23 = load ptr, ptr %3, align 8, !tbaa !23
  %24 = load ptr, ptr %4, align 8, !tbaa !10
  %25 = call i32 @H5O__msg_reset_real(ptr noundef %23, ptr noundef %24)
  %26 = load ptr, ptr %3, align 8, !tbaa !23
  %27 = icmp ne ptr %26, null
  br i1 %27, label %28, label %39

28:                                               ; preds = %22
  %29 = load ptr, ptr %3, align 8, !tbaa !23
  %30 = getelementptr inbounds nuw %struct.H5O_msg_class_t, ptr %29, i32 0, i32 9
  %31 = load ptr, ptr %30, align 8, !tbaa !76
  %32 = icmp ne ptr %31, null
  br i1 %32, label %33, label %39

33:                                               ; preds = %28
  %34 = load ptr, ptr %3, align 8, !tbaa !23
  %35 = getelementptr inbounds nuw %struct.H5O_msg_class_t, ptr %34, i32 0, i32 9
  %36 = load ptr, ptr %35, align 8, !tbaa !76
  %37 = load ptr, ptr %4, align 8, !tbaa !10
  %38 = call i32 %36(ptr noundef %37)
  br label %42

39:                                               ; preds = %28, %22
  %40 = load ptr, ptr %4, align 8, !tbaa !10
  %41 = call ptr @H5MM_xfree(ptr noundef %40)
  br label %42

42:                                               ; preds = %39, %33
  br label %43

43:                                               ; preds = %42, %19
  br label %44

44:                                               ; preds = %43, %11
  ret ptr null
}