; Function Attrs: nounwind uwtable
define noundef ptr @H5O_msg_free_real(ptr noundef readonly captures(none) %0, ptr noundef %1) local_unnamed_addr #0 {
  %3 = load i8, ptr @H5O_init_g, align 1, !tbaa !3, !range !7, !noundef !8
  %4 = trunc nuw i8 %3 to i1
  %5 = load i8, ptr @H5_libterm_g, align 1, !range !7
  %6 = trunc nuw i8 %5 to i1
  %7 = xor i1 %6, true
  %8 = select i1 %4, i1 true, i1 %7
  %9 = icmp ne ptr %1, null
  %or.cond = and i1 %9, %8
  br i1 %or.cond, label %10, label %29, !prof !43

10:                                               ; preds = %2
  %11 = getelementptr inbounds nuw i8, ptr %0, i64 64
  %12 = load ptr, ptr %11, align 8, !tbaa !44
  %.not.i = icmp eq ptr %12, null
  br i1 %.not.i, label %20, label %13

13:                                               ; preds = %10
  %14 = tail call i32 %12(ptr noundef nonnull %1) #7
  %15 = icmp slt i32 %14, 0
  br i1 %15, label %16, label %H5O__msg_reset_real.exit

16:                                               ; preds = %13
  %17 = load i64, ptr @H5E_OHDR_g, align 8, !tbaa !10
  %18 = load i64, ptr @H5E_CANTRELEASE_g, align 8, !tbaa !10
  %19 = tail call i32 (ptr, ptr, i32, i64, i64, ptr, ...) @H5E_printf_stack(ptr noundef nonnull @.str, ptr noundef nonnull @__func__.H5O__msg_reset_real, i32 noundef 556, i64 noundef %17, i64 noundef %18, ptr noundef nonnull @.str.47) #7
  br label %H5O__msg_reset_real.exit

20:                                               ; preds = %10
  %21 = getelementptr inbounds nuw i8, ptr %0, i64 16
  %22 = load i64, ptr %21, align 8, !tbaa !45
  tail call void @llvm.memset.p0.i64(ptr nonnull align 1 %1, i8 0, i64 %22, i1 false)
  br label %H5O__msg_reset_real.exit

H5O__msg_reset_real.exit:                         ; preds = %20, %16, %13
  %23 = getelementptr inbounds nuw i8, ptr %0, i64 72
  %24 = load ptr, ptr %23, align 8, !tbaa !69
  %.not11 = icmp eq ptr %24, null
  br i1 %.not11, label %27, label %25

25:                                               ; preds = %H5O__msg_reset_real.exit
  %26 = tail call i32 %24(ptr noundef nonnull %1) #7
  br label %29

27:                                               ; preds = %H5O__msg_reset_real.exit
  %28 = tail call ptr @H5MM_xfree(ptr noundef nonnull %1) #7
  br label %29

29:                                               ; preds = %27, %25, %2
  ret ptr null
}